(lp0
(VAW
p1
Vvallecula
p2
Vx
p3
tp4
a(g1
g2
Vy
p5
tp6
a(g1
VtongueRoot1
p7
g3
tp8
a(g1
g7
g5
tp9
a(g1
VtongueRoot2
p10
g3
tp11
a(g1
g10
g5
tp12
a(g1
VtongueBody1
p13
g3
tp14
a(g1
g13
g5
tp15
a(g1
VtongueBody2
p16
g3
tp17
a(g1
g16
g5
tp18
a(g1
VtongueDorsum1
p19
g3
tp20
a(g1
g19
g5
tp21
a(g1
VtongueDorsum2
p22
g3
tp23
a(g1
g22
g5
tp24
a(g1
VtongueBlade1
p25
g3
tp26
a(g1
g25
g5
tp27
a(g1
VtongueBlade2
p28
g3
tp29
a(g1
g28
g5
tp30
a(g1
VtongueTip1
p31
g3
tp32
a(g1
g31
g5
tp33
a(g1
VtongueTip2
p34
g3
tp35
a(g1
g34
g5
tp36
a(g1
Vhyoid
p37
g3
tp38
a(g1
g37
g5
tp39
a(g1
Vmandible
p40
g3
tp41
a(g1
g40
g5
tp42
a(g1
VshortTendon
p43
g3
tp44
a(g1
g43
g5
tp45
a.
